target datalayout = "e-m:e-p270:32:32-p271:32:32-p272:64:64-i64:64-i128:128-f80:128-n8:16:32:64-S128"
target triple = "x86_64-pc-linux-gnu"

; Function Attrs: nounwind uwtable
define hidden i32 @mbedtls_x509_write_sig(ptr noundef %0, ptr noundef %1, ptr noundef %2, i64 noundef %3, ptr noundef %4, i64 noundef %5, i32 noundef %6) #0 {
  %8 = alloca i32, align 4
  %9 = alloca ptr, align 8
  %10 = alloca ptr, align 8
  %11 = alloca ptr, align 8
  %12 = alloca i64, align 8
  %13 = alloca ptr, align 8
  %14 = alloca i64, align 8
  %15 = alloca i32, align 4
  %16 = alloca i32, align 4
  %17 = alloca i32, align 4
  %18 = alloca i64, align 8
  %19 = alloca i32, align 4
  store ptr %0, ptr %9, align 8, !tbaa !41
  store ptr %1, ptr %10, align 8, !tbaa !9
  store ptr %2, ptr %11, align 8, !tbaa !9
  store i64 %3, ptr %12, align 8, !tbaa !14
  store ptr %4, ptr %13, align 8, !tbaa !9
  store i64 %5, ptr %14, align 8, !tbaa !14
  store i32 %6, ptr %15, align 4, !tbaa !11
  call void @llvm.lifetime.start.p0(i64 4, ptr %16) #7
  store i32 -110, ptr %16, align 4, !tbaa !11
  call void @llvm.lifetime.start.p0(i64 4, ptr %17) #7
  call void @llvm.lifetime.start.p0(i64 8, ptr %18) #7
  store i64 0, ptr %18, align 8, !tbaa !14
  %20 = load ptr, ptr %9, align 8, !tbaa !41
  %21 = load ptr, ptr %20, align 8, !tbaa !9
  %22 = load ptr, ptr %10, align 8, !tbaa !9
  %23 = icmp ult ptr %21, %22
  br i1 %23, label %33, label %24

24:                                               ; preds = %7
  %25 = load ptr, ptr %9, align 8, !tbaa !41
  %26 = load ptr, ptr %25, align 8, !tbaa !9
  %27 = load ptr, ptr %10, align 8, !tbaa !9
  %28 = ptrtoint ptr %26 to i64
  %29 = ptrtoint ptr %27 to i64
  %30 = sub i64 %28, %29
  %31 = load i64, ptr %14, align 8, !tbaa !14
  %32 = icmp ult i64 %30, %31
  br i1 %32, label %33, label %34

33:                                               ; preds = %24, %7
  store i32 -108, ptr %8, align 4
  store i32 1, ptr %19, align 4
  br label %115

34:                                               ; preds = %24
  %35 = load i64, ptr %14, align 8, !tbaa !14
  store i64 %35, ptr %18, align 8, !tbaa !14
  %36 = load i64, ptr %18, align 8, !tbaa !14
  %37 = load ptr, ptr %9, align 8, !tbaa !41
  %38 = load ptr, ptr %37, align 8, !tbaa !9
  %39 = sub i64 0, %36
  %40 = getelementptr inbounds i8, ptr %38, i64 %39
  store ptr %40, ptr %37, align 8, !tbaa !9
  %41 = load ptr, ptr %9, align 8, !tbaa !41
  %42 = load ptr, ptr %41, align 8, !tbaa !9
  %43 = load ptr, ptr %13, align 8, !tbaa !9
  %44 = load i64, ptr %18, align 8, !tbaa !14
  call void @llvm.memcpy.p0.p0.i64(ptr align 1 %42, ptr align 1 %43, i64 %44, i1 false)
  %45 = load ptr, ptr %9, align 8, !tbaa !41
  %46 = load ptr, ptr %45, align 8, !tbaa !9
  %47 = load ptr, ptr %10, align 8, !tbaa !9
  %48 = ptrtoint ptr %46 to i64
  %49 = ptrtoint ptr %47 to i64
  %50 = sub i64 %48, %49
  %51 = icmp slt i64 %50, 1
  br i1 %51, label %52, label %53

52:                                               ; preds = %34
  store i32 -108, ptr %8, align 4
  store i32 1, ptr %19, align 4
  br label %115

53:                                               ; preds = %34
  %54 = load ptr, ptr %9, align 8, !tbaa !41
  %55 = load ptr, ptr %54, align 8, !tbaa !9
  %56 = getelementptr inbounds i8, ptr %55, i32 -1
  store ptr %56, ptr %54, align 8, !tbaa !9
  store i8 0, ptr %56, align 1, !tbaa !16
  %57 = load i64, ptr %18, align 8, !tbaa !14
  %58 = add i64 %57, 1
  store i64 %58, ptr %18, align 8, !tbaa !14
  br label %59

59:                                               ; preds = %53
  %60 = load ptr, ptr %9, align 8, !tbaa !41
  %61 = load ptr, ptr %10, align 8, !tbaa !9
  %62 = load i64, ptr %18, align 8, !tbaa !14
  %63 = call i32 @mbedtls_asn1_write_len(ptr noundef %60, ptr noundef %61, i64 noundef %62)
  store i32 %63, ptr %16, align 4, !tbaa !11
  %64 = icmp slt i32 %63, 0
  br i1 %64, label %65, label %67

65:                                               ; preds = %59
  %66 = load i32, ptr %16, align 4, !tbaa !11
  store i32 %66, ptr %8, align 4
  store i32 1, ptr %19, align 4
  br label %115

67:                                               ; preds = %59
  %68 = load i32, ptr %16, align 4, !tbaa !11
  %69 = sext i32 %68 to i64
  %70 = load i64, ptr %18, align 8, !tbaa !14
  %71 = add i64 %70, %69
  store i64 %71, ptr %18, align 8, !tbaa !14
  br label %72

72:                                               ; preds = %67
  br label %73

73:                                               ; preds = %72
  br label %74

74:                                               ; preds = %73
  br label %75

75:                                               ; preds = %74
  %76 = load ptr, ptr %9, align 8, !tbaa !41
  %77 = load ptr, ptr %10, align 8, !tbaa !9
  %78 = call i32 @mbedtls_asn1_write_tag(ptr noundef %76, ptr noundef %77, i8 noundef zeroext 3)
  store i32 %78, ptr %16, align 4, !tbaa !11
  %79 = icmp slt i32 %78, 0
  br i1 %79, label %80, label %82

80:                                               ; preds = %75
  %81 = load i32, ptr %16, align 4, !tbaa !11
  store i32 %81, ptr %8, align 4
  store i32 1, ptr %19, align 4
  br label %115

82:                                               ; preds = %75
  %83 = load i32, ptr %16, align 4, !tbaa !11
  %84 = sext i32 %83 to i64
  %85 = load i64, ptr %18, align 8, !tbaa !14
  %86 = add i64 %85, %84
  store i64 %86, ptr %18, align 8, !tbaa !14
  br label %87

87:                                               ; preds = %82
  br label %88

88:                                               ; preds = %87
  br label %89

89:                                               ; preds = %88
  %90 = load i32, ptr %15, align 4, !tbaa !11
  %91 = icmp eq i32 %90, 4
  br i1 %91, label %92, label %93

92:                                               ; preds = %89
  store i32 0, ptr %17, align 4, !tbaa !11
  br label %94

93:                                               ; preds = %89
  store i32 1, ptr %17, align 4, !tbaa !11
  br label %94

94:                                               ; preds = %93, %92
  br label %95

95:                                               ; preds = %94
  %96 = load ptr, ptr %9, align 8, !tbaa !41
  %97 = load ptr, ptr %10, align 8, !tbaa !9
  %98 = load ptr, ptr %11, align 8, !tbaa !9
  %99 = load i64, ptr %12, align 8, !tbaa !14
  %100 = load i32, ptr %17, align 4, !tbaa !11
  %101 = call i32 @mbedtls_asn1_write_algorithm_identifier_ext(ptr noundef %96, ptr noundef %97, ptr noundef %98, i64 noundef %99, i64 noundef 0, i32 noundef %100)
  store i32 %101, ptr %16, align 4, !tbaa !11
  %102 = icmp slt i32 %101, 0
  br i1 %102, label %103, label %105

103:                                              ; preds = %95
  %104 = load i32, ptr %16, align 4, !tbaa !11
  store i32 %104, ptr %8, align 4
  store i32 1, ptr %19, align 4
  br label %115

105:                                              ; preds = %95
  %106 = load i32, ptr %16, align 4, !tbaa !11
  %107 = sext i32 %106 to i64
  %108 = load i64, ptr %18, align 8, !tbaa !14
  %109 = add i64 %108, %107
  store i64 %109, ptr %18, align 8, !tbaa !14
  br label %110

110:                                              ; preds = %105
  br label %111

111:                                              ; preds = %110
  br label %112

112:                                              ; preds = %111
  %113 = load i64, ptr %18, align 8, !tbaa !14
  %114 = trunc i64 %113 to i32
  store i32 %114, ptr %8, align 4
  store i32 1, ptr %19, align 4
  br label %115

115:                                              ; preds = %112, %103, %80, %65, %52, %33
  call void @llvm.lifetime.end.p0(i64 8, ptr %18) #7
  call void @llvm.lifetime.end.p0(i64 4, ptr %17) #7
  call void @llvm.lifetime.end.p0(i64 4, ptr %16) #7
  %116 = load i32, ptr %8, align 4
  ret i32 %116
}