; Function Attrs: nounwind uwtable
define hidden i32 @mbedtls_x509_write_sig(ptr noundef %0, ptr noundef %1, ptr noundef %2, i64 noundef %3, ptr noundef readonly captures(none) %4, i64 noundef %5, i32 noundef %6) local_unnamed_addr #0 {
  %8 = load ptr, ptr %0, align 8, !tbaa !21
  %9 = icmp ult ptr %8, %1
  br i1 %9, label %39, label %10

10:                                               ; preds = %7
  %11 = ptrtoint ptr %8 to i64
  %12 = ptrtoint ptr %1 to i64
  %13 = sub i64 %11, %12
  %14 = icmp ult i64 %13, %5
  br i1 %14, label %39, label %15

15:                                               ; preds = %10
  %16 = sub i64 0, %5
  %17 = getelementptr inbounds i8, ptr %8, i64 %16
  store ptr %17, ptr %0, align 8, !tbaa !21
  tail call void @llvm.memcpy.p0.p0.i64(ptr align 1 %17, ptr align 1 %4, i64 %5, i1 false)
  %18 = load ptr, ptr %0, align 8, !tbaa !21
  %19 = ptrtoint ptr %18 to i64
  %20 = sub i64 %19, %12
  %21 = icmp slt i64 %20, 1
  br i1 %21, label %39, label %22

22:                                               ; preds = %15
  %23 = getelementptr inbounds i8, ptr %18, i64 -1
  store ptr %23, ptr %0, align 8, !tbaa !21
  store i8 0, ptr %23, align 1, !tbaa !7
  %24 = add i64 %5, 1
  %25 = tail call i32 @mbedtls_asn1_write_len(ptr noundef nonnull %0, ptr noundef %1, i64 noundef %24) #10
  %26 = icmp slt i32 %25, 0
  br i1 %26, label %39, label %27

27:                                               ; preds = %22
  %28 = tail call i32 @mbedtls_asn1_write_tag(ptr noundef nonnull %0, ptr noundef %1, i8 noundef zeroext 3) #10
  %29 = icmp slt i32 %28, 0
  br i1 %29, label %39, label %30

30:                                               ; preds = %27
  %31 = icmp ne i32 %6, 4
  %. = zext i1 %31 to i32
  %32 = tail call i32 @mbedtls_asn1_write_algorithm_identifier_ext(ptr noundef nonnull %0, ptr noundef %1, ptr noundef %2, i64 noundef %3, i64 noundef 0, i32 noundef %.) #10
  %33 = icmp slt i32 %32, 0
  br i1 %33, label %39, label %34

34:                                               ; preds = %30
  %35 = trunc i64 %24 to i32
  %36 = add i32 %25, %35
  %37 = add i32 %36, %28
  %38 = add i32 %37, %32
  br label %39

39:                                               ; preds = %30, %27, %22, %15, %7, %10, %34
  %.036 = phi i32 [ %38, %34 ], [ -108, %10 ], [ -108, %7 ], [ -108, %15 ], [ %25, %22 ], [ %28, %27 ], [ %32, %30 ]
  ret i32 %.036
}